; Function Attrs: mustprogress nofree norecurse nosync nounwind willreturn memory(read, inaccessiblemem: none) uwtable
define i32 @Acb_ObjSlack(ptr noundef readonly captures(none) %0, i32 noundef %1) local_unnamed_addr #8 {
  %3 = getelementptr i8, ptr %0, i64 360
  %.val = load ptr, ptr %3, align 8, !tbaa !21
  %4 = sext i32 %1 to i64
  %5 = getelementptr inbounds i32, ptr %.val, i64 %4
  %6 = load i32, ptr %5, align 4, !tbaa !22
  %7 = getelementptr i8, ptr %0, i64 376
  %.val8 = load ptr, ptr %7, align 8, !tbaa !21
  %8 = getelementptr inbounds i32, ptr %.val8, i64 %4
  %9 = load i32, ptr %8, align 4, !tbaa !22
  %10 = getelementptr i8, ptr %0, i64 120
  %.val7 = load ptr, ptr %10, align 8, !tbaa !23
  %11 = getelementptr inbounds i8, ptr %.val7, i64 %4
  %12 = load i8, ptr %11, align 1, !tbaa !24
  %13 = add i8 %12, -5
  %narrow.i = icmp ult i8 %13, -2
  %14 = zext i1 %narrow.i to i32
  %15 = getelementptr inbounds nuw i8, ptr %0, i64 100
  %16 = load i32, ptr %15, align 4, !tbaa !95
  %17 = add i32 %9, %6
  %18 = sub i32 %16, %17
  %19 = add i32 %18, %14
  ret i32 %19
}